target datalayout = "e-m:e-p270:32:32-p271:32:32-p272:64:64-i64:64-i128:128-f80:128-n8:16:32:64-S128"
target triple = "x86_64-pc-linux-gnu"

%struct.anon = type { i32, [0 x i8] }
%struct.varattrib_1b = type { i8, [0 x i8] }
%struct.varattrib_1b_e = type { i8, i8, [0 x i8] }

; Function Attrs: nounwind uwtable
define dso_local ptr @text_to_cstring(ptr noundef %0) #1 {
  %2 = alloca ptr, align 8
  %3 = alloca ptr, align 8
  %4 = alloca i32, align 4
  %5 = alloca i32, align 4
  %6 = alloca ptr, align 8
  store ptr %0, ptr %2, align 8
  call void @llvm.lifetime.start.p0(i64 8, ptr %3) #13
  br label %7

7:                                                ; preds = %1
  br label %8

8:                                                ; preds = %7
  br label %9

9:                                                ; preds = %8
  store i32 1, ptr %4, align 4
  %10 = load ptr, ptr %2, align 8
  %11 = call ptr @pg_detoast_datum_packed(ptr noundef %10)
  store ptr %11, ptr %3, align 8
  call void @llvm.lifetime.start.p0(i64 4, ptr %5) #13
  %12 = load ptr, ptr %3, align 8
  %13 = getelementptr inbounds nuw %struct.varattrib_1b, ptr %12, i32 0, i32 0
  %14 = load i8, ptr %13, align 1
  %15 = zext i8 %14 to i32
  %16 = icmp eq i32 %15, 1
  br i1 %16, label %17, label %45

17:                                               ; preds = %9
  %18 = load ptr, ptr %3, align 8
  %19 = getelementptr inbounds nuw %struct.varattrib_1b_e, ptr %18, i32 0, i32 1
  %20 = load i8, ptr %19, align 1
  %21 = zext i8 %20 to i32
  %22 = icmp eq i32 %21, 1
  br i1 %22, label %23, label %24

23:                                               ; preds = %17
  br label %41

24:                                               ; preds = %17
  %25 = load ptr, ptr %3, align 8
  %26 = getelementptr inbounds nuw %struct.varattrib_1b_e, ptr %25, i32 0, i32 1
  %27 = load i8, ptr %26, align 1
  %28 = zext i8 %27 to i32
  %29 = and i32 %28, -2
  %30 = icmp eq i32 %29, 2
  br i1 %30, label %31, label %32

31:                                               ; preds = %24
  br label %39

32:                                               ; preds = %24
  %33 = load ptr, ptr %3, align 8
  %34 = getelementptr inbounds nuw %struct.varattrib_1b_e, ptr %33, i32 0, i32 1
  %35 = load i8, ptr %34, align 1
  %36 = zext i8 %35 to i32
  %37 = icmp eq i32 %36, 18
  %38 = select i1 %37, i64 16, i64 0
  br label %39

39:                                               ; preds = %32, %31
  %40 = phi i64 [ 8, %31 ], [ %38, %32 ]
  br label %41

41:                                               ; preds = %39, %23
  %42 = phi i64 [ 8, %23 ], [ %40, %39 ]
  %43 = add i64 2, %42
  %44 = sub i64 %43, 2
  br label %71

45:                                               ; preds = %9
  %46 = load ptr, ptr %3, align 8
  %47 = getelementptr inbounds nuw %struct.varattrib_1b, ptr %46, i32 0, i32 0
  %48 = load i8, ptr %47, align 1
  %49 = zext i8 %48 to i32
  %50 = and i32 %49, 1
  %51 = icmp eq i32 %50, 1
  br i1 %51, label %52, label %61

52:                                               ; preds = %45
  %53 = load ptr, ptr %3, align 8
  %54 = getelementptr inbounds nuw %struct.varattrib_1b, ptr %53, i32 0, i32 0
  %55 = load i8, ptr %54, align 1
  %56 = zext i8 %55 to i32
  %57 = ashr i32 %56, 1
  %58 = and i32 %57, 127
  %59 = sext i32 %58 to i64
  %60 = sub i64 %59, 1
  br label %69

61:                                               ; preds = %45
  %62 = load ptr, ptr %3, align 8
  %63 = getelementptr inbounds nuw %struct.anon, ptr %62, i32 0, i32 0
  %64 = load i32, ptr %63, align 4
  %65 = lshr i32 %64, 2
  %66 = and i32 %65, 1073741823
  %67 = sub i32 %66, 4
  %68 = zext i32 %67 to i64
  br label %69

69:                                               ; preds = %61, %52
  %70 = phi i64 [ %60, %52 ], [ %68, %61 ]
  br label %71

71:                                               ; preds = %69, %41
  %72 = phi i64 [ %44, %41 ], [ %70, %69 ]
  %73 = trunc i64 %72 to i32
  store i32 %73, ptr %5, align 4
  call void @llvm.lifetime.start.p0(i64 8, ptr %6) #13
  %74 = load i32, ptr %5, align 4
  %75 = add i32 %74, 1
  %76 = sext i32 %75 to i64
  %77 = call ptr @palloc(i64 noundef %76)
  store ptr %77, ptr %6, align 8
  %78 = load ptr, ptr %6, align 8
  %79 = load ptr, ptr %3, align 8
  %80 = getelementptr inbounds nuw %struct.varattrib_1b, ptr %79, i32 0, i32 0
  %81 = load i8, ptr %80, align 1
  %82 = zext i8 %81 to i32
  %83 = and i32 %82, 1
  %84 = icmp eq i32 %83, 1
  br i1 %84, label %85, label %89

85:                                               ; preds = %71
  %86 = load ptr, ptr %3, align 8
  %87 = getelementptr inbounds nuw %struct.varattrib_1b, ptr %86, i32 0, i32 1
  %88 = getelementptr inbounds [0 x i8], ptr %87, i64 0, i64 0
  br label %93

89:                                               ; preds = %71
  %90 = load ptr, ptr %3, align 8
  %91 = getelementptr inbounds nuw %struct.anon, ptr %90, i32 0, i32 1
  %92 = getelementptr inbounds [0 x i8], ptr %91, i64 0, i64 0
  br label %93

93:                                               ; preds = %89, %85
  %94 = phi ptr [ %88, %85 ], [ %92, %89 ]
  %95 = load i32, ptr %5, align 4
  %96 = sext i32 %95 to i64
  call void @llvm.memcpy.p0.p0.i64(ptr align 1 %78, ptr align 1 %94, i64 %96, i1 false)
  %97 = load ptr, ptr %6, align 8
  %98 = load i32, ptr %5, align 4
  %99 = sext i32 %98 to i64
  %100 = getelementptr inbounds i8, ptr %97, i64 %99
  store i8 0, ptr %100, align 1
  %101 = load ptr, ptr %3, align 8
  %102 = load ptr, ptr %2, align 8
  %103 = icmp ne ptr %101, %102
  br i1 %103, label %104, label %106

104:                                              ; preds = %93
  %105 = load ptr, ptr %3, align 8
  call void @pfree(ptr noundef %105)
  br label %106

106:                                              ; preds = %104, %93
  %107 = load ptr, ptr %6, align 8
  call void @llvm.lifetime.end.p0(i64 8, ptr %6) #13
  call void @llvm.lifetime.end.p0(i64 4, ptr %5) #13
  call void @llvm.lifetime.end.p0(i64 8, ptr %3) #13
  ret ptr %107
}