; Function Attrs: nounwind uwtable
define dso_local ptr @text_to_cstring(ptr noundef %0) local_unnamed_addr #0 {
  %2 = tail call ptr @pg_detoast_datum_packed(ptr noundef %0) #19
  %3 = load i8, ptr %2, align 1
  %4 = zext i8 %3 to i32
  %5 = icmp eq i8 %3, 1
  br i1 %5, label %6, label %15

6:                                                ; preds = %1
  %7 = getelementptr inbounds nuw i8, ptr %2, i64 1
  %8 = load i8, ptr %7, align 1
  %9 = icmp eq i8 %8, 1
  %10 = and i8 %8, -2
  %11 = icmp eq i8 %10, 2
  %or.cond = or i1 %9, %11
  %12 = icmp eq i8 %8, 18
  %13 = select i1 %12, i32 16, i32 0
  %14 = select i1 %or.cond, i32 8, i32 %13
  br label %24

15:                                               ; preds = %1
  %16 = and i32 %4, 1
  %.not = icmp eq i32 %16, 0
  br i1 %.not, label %20, label %17

17:                                               ; preds = %15
  %18 = lshr i32 %4, 1
  %19 = add nsw i32 %18, -1
  br label %24

20:                                               ; preds = %15
  %21 = load i32, ptr %2, align 4
  %22 = lshr i32 %21, 2
  %23 = add nsw i32 %22, -4
  br label %24

24:                                               ; preds = %17, %20, %6
  %25 = phi i32 [ %14, %6 ], [ %19, %17 ], [ %23, %20 ]
  %26 = add nsw i32 %25, 1
  %27 = sext i32 %26 to i64
  %28 = tail call ptr @palloc(i64 noundef %27) #19
  %29 = load i8, ptr %2, align 1
  %30 = and i8 %29, 1
  %.not21 = icmp eq i8 %30, 0
  %.v = select i1 %.not21, i64 4, i64 1
  %31 = getelementptr inbounds nuw i8, ptr %2, i64 %.v
  %32 = sext i32 %25 to i64
  tail call void @llvm.memcpy.p0.p0.i64(ptr align 1 %28, ptr nonnull align 1 %31, i64 %32, i1 false)
  %33 = getelementptr inbounds i8, ptr %28, i64 %32
  store i8 0, ptr %33, align 1
  %.not22 = icmp eq ptr %2, %0
  br i1 %.not22, label %35, label %34

34:                                               ; preds = %24
  tail call void @pfree(ptr noundef nonnull %2) #19
  br label %35

35:                                               ; preds = %34, %24
  ret ptr %28
}